; Function Attrs: nounwind sspstrong uwtable
define internal range(i32 -2147483648, 1) i32 @parallels_co_create_opts(ptr readnone captures(none) %drv, ptr noundef %filename, ptr noundef %opts, ptr noundef %errp) #0 {
entry:
  %create_options = alloca ptr, align 8
  store ptr null, ptr %create_options, align 8
  %call = tail call ptr @qemu_opts_to_qdict_filtered(ptr noundef %opts, ptr noundef null, ptr noundef nonnull @parallels_create_opts, i1 noundef zeroext true) #16
  %call1 = tail call zeroext i1 @qdict_rename_keys(ptr noundef %call, ptr noundef nonnull @parallels_co_create_opts.opt_renames, ptr noundef %errp) #16
  br i1 %call1, label %if.end, label %done

if.end:                                           ; preds = %entry
  %call2 = tail call i32 @bdrv_co_create_file(ptr noundef %filename, ptr noundef %opts, ptr noundef %errp) #16
  %cmp = icmp slt i32 %call2, 0
  br i1 %cmp, label %done, label %if.end4

if.end4:                                          ; preds = %if.end
  %call5 = tail call ptr @bdrv_co_open(ptr noundef %filename, ptr noundef null, ptr noundef null, i32 noundef 32774, ptr noundef %errp) #16
  %cmp6 = icmp eq ptr %call5, null
  br i1 %cmp6, label %done, label %if.end8

if.end8:                                          ; preds = %if.end4
  tail call void @qdict_put_str(ptr noundef %call, ptr noundef nonnull @.str.34, ptr noundef nonnull @.str) #16
  %node_name = getelementptr inbounds nuw i8, ptr %call5, i64 16600
  tail call void @qdict_put_str(ptr noundef %call, ptr noundef nonnull @.str.8, ptr noundef nonnull %node_name) #16
  %call9 = tail call ptr @qobject_input_visitor_new_flat_confused(ptr noundef %call, ptr noundef %errp) #16
  %tobool.not = icmp eq ptr %call9, null
  br i1 %tobool.not, label %done, label %if.end11

if.end11:                                         ; preds = %if.end8
  %call12 = call zeroext i1 @visit_type_BlockdevCreateOptions(ptr noundef nonnull %call9, ptr noundef null, ptr noundef nonnull %create_options, ptr noundef %errp) #16
  call void @visit_free(ptr noundef nonnull %call9) #16
  %0 = load ptr, ptr %create_options, align 8
  %tobool13.not = icmp eq ptr %0, null
  br i1 %tobool13.not, label %done, label %if.end15

if.end15:                                         ; preds = %if.end11
  %size = getelementptr inbounds nuw i8, ptr %0, i64 16
  %1 = load i64, ptr %size, align 8
  %sub = add i64 %1, 511
  %and = and i64 %sub, -512
  store i64 %and, ptr %size, align 8
  %cluster_size = getelementptr inbounds nuw i8, ptr %0, i64 32
  %2 = load i64, ptr %cluster_size, align 8
  %sub20 = add i64 %2, 511
  %and21 = and i64 %sub20, -512
  store i64 %and21, ptr %cluster_size, align 8
  %call24 = call i32 @parallels_co_create(ptr noundef nonnull %0, ptr noundef %errp)
  br label %done

done:                                             ; preds = %if.end11, %if.end8, %if.end4, %entry, %if.end15, %if.end
  %ret.0 = phi i32 [ %call2, %if.end ], [ %call24, %if.end15 ], [ -22, %entry ], [ -5, %if.end4 ], [ -22, %if.end8 ], [ -22, %if.end11 ]
  %bs.0 = phi ptr [ null, %if.end ], [ %call5, %if.end15 ], [ null, %entry ], [ null, %if.end4 ], [ %call5, %if.end8 ], [ %call5, %if.end11 ]
  %tobool28.not = icmp eq ptr %call, null
  br i1 %tobool28.not, label %qobject_unref_impl.exit, label %lor.lhs.false.i

lor.lhs.false.i:                                  ; preds = %done
  %refcnt.i = getelementptr inbounds nuw i8, ptr %call, i64 8
  %3 = load i64, ptr %refcnt.i, align 8
  %tobool1.not.i = icmp eq i64 %3, 0
  br i1 %tobool1.not.i, label %if.else.i, label %land.lhs.true.i

if.else.i:                                        ; preds = %lor.lhs.false.i
  call void @__assert_fail(ptr noundef nonnull @.str.35, ptr noundef nonnull @.str.36, i32 noundef 97, ptr noundef nonnull @__PRETTY_FUNCTION__.qobject_unref_impl) #18
  unreachable

land.lhs.true.i:                                  ; preds = %lor.lhs.false.i
  %dec.i = add i64 %3, -1
  store i64 %dec.i, ptr %refcnt.i, align 8
  %cmp.i = icmp eq i64 %dec.i, 0
  br i1 %cmp.i, label %if.then5.i, label %qobject_unref_impl.exit

if.then5.i:                                       ; preds = %land.lhs.true.i
  call void @qobject_destroy(ptr noundef nonnull %call) #16
  br label %qobject_unref_impl.exit

qobject_unref_impl.exit:                          ; preds = %done, %land.lhs.true.i, %if.then5.i
  call void @bdrv_co_unref(ptr noundef %bs.0) #16
  %4 = load ptr, ptr %create_options, align 8
  call void @qapi_free_BlockdevCreateOptions(ptr noundef %4) #16
  ret i32 %ret.0
}